; Function Attrs: mustprogress uwtable
define void @_ZN32pxrInternal_v0_24__pxrReserved__3Hgi10SubmitCmdsEPNS_7HgiCmdsENS_17HgiSubmitWaitTypeE(ptr noundef nonnull align 8 dereferenceable(16) %0, ptr noundef %1, i32 noundef %2) local_unnamed_addr #0 align 2 personality ptr @__gxx_personality_v0 {
  %4 = alloca %"class.pxrInternal_v0_24__pxrReserved__::TraceKey", align 8
  %5 = alloca %"class.pxrInternal_v0_24__pxrReserved__::TraceKey", align 8
  %6 = alloca %"class.pxrInternal_v0_24__pxrReserved__::TfCallContext", align 8
  %7 = load atomic i32, ptr @_ZN32pxrInternal_v0_24__pxrReserved__14TraceCollector10_isEnabledE acquire, align 4
  %8 = icmp eq i32 %7, 1
  br i1 %8, label %9, label %_ZN32pxrInternal_v0_24__pxrReserved__14TraceScopeAutoC2ERKNS_18TraceStaticKeyDataE.exit

9:                                                ; preds = %3
  fence syncscope("singlethread") seq_cst
  %10 = tail call { i32, i32 } asm sideeffect "lfence\0A\09rdtsc\0A\09lfence", "={ax},={dx},~{dirflag},~{fpsr},~{flags}"() #18, !srcloc !4
  %11 = extractvalue { i32, i32 } %10, 0
  %12 = extractvalue { i32, i32 } %10, 1
  %13 = zext i32 %12 to i64
  %14 = shl nuw i64 %13, 32
  %15 = zext i32 %11 to i64
  br label %_ZN32pxrInternal_v0_24__pxrReserved__14TraceScopeAutoC2ERKNS_18TraceStaticKeyDataE.exit

_ZN32pxrInternal_v0_24__pxrReserved__14TraceScopeAutoC2ERKNS_18TraceStaticKeyDataE.exit: ; preds = %3, %9
  %.sroa.7.0 = phi i64 [ %15, %9 ], [ 0, %3 ]
  %.sroa.11.0 = phi i64 [ %14, %9 ], [ 0, %3 ]
  %.not = icmp eq ptr %1, null
  br i1 %.not, label %.critedge, label %16

16:                                               ; preds = %_ZN32pxrInternal_v0_24__pxrReserved__14TraceScopeAutoC2ERKNS_18TraceStaticKeyDataE.exit
  %17 = invoke noundef zeroext i1 @_ZNK32pxrInternal_v0_24__pxrReserved__7HgiCmds11IsSubmittedEv(ptr noundef nonnull align 8 dereferenceable(9) %1)
          to label %18 unwind label %31

18:                                               ; preds = %16
  br i1 %17, label %19, label %.critedge2

19:                                               ; preds = %18
  store ptr @.str.8, ptr %6, align 8
  %20 = getelementptr inbounds nuw i8, ptr %6, i64 8
  store ptr @.str.6, ptr %20, align 8
  %21 = getelementptr inbounds nuw i8, ptr %6, i64 16
  store i64 39, ptr %21, align 8
  %22 = getelementptr inbounds nuw i8, ptr %6, i64 24
  store ptr @.str.7, ptr %22, align 8
  %23 = getelementptr inbounds nuw i8, ptr %6, i64 32
  store i8 0, ptr %23, align 8
  %24 = invoke noundef zeroext i1 @_ZN32pxrInternal_v0_24__pxrReserved__21Tf_FailedVerifyHelperERKNS_13TfCallContextEPKcS4_(ptr noundef nonnull align 8 dereferenceable(33) %6, ptr noundef nonnull @.str.9, ptr noundef null)
          to label %25 unwind label %31

25:                                               ; preds = %19
  br i1 %24, label %.critedge2, label %.critedge

.critedge2:                                       ; preds = %18, %25
  %26 = load ptr, ptr %0, align 8
  %27 = getelementptr inbounds nuw i8, ptr %26, i64 232
  %28 = load ptr, ptr %27, align 8
  %29 = invoke noundef zeroext i1 %28(ptr noundef nonnull align 8 dereferenceable(16) %0, ptr noundef nonnull %1, i32 noundef %2)
          to label %30 unwind label %31

30:                                               ; preds = %.critedge2
  invoke void @_ZN32pxrInternal_v0_24__pxrReserved__7HgiCmds13_SetSubmittedEv(ptr noundef nonnull align 8 dereferenceable(9) %1)
          to label %.critedge unwind label %31

31:                                               ; preds = %30, %.critedge2, %19, %16
  %32 = landingpad { ptr, i32 }
          cleanup
  call void @llvm.lifetime.start.p0(i64 8, ptr nonnull %5)
  br i1 %8, label %33, label %_ZN32pxrInternal_v0_24__pxrReserved__14TraceScopeAutoD2Ev.exit

33:                                               ; preds = %31
  fence syncscope("singlethread") seq_cst
  %34 = call noundef i64 asm sideeffect "rdtscp\0A\09shl $$32, %rdx\0A\09or %rdx, $0\0A\09lfence", "={ax},~{rcx},~{rdx},~{cc},~{dirflag},~{fpsr},~{flags}"() #18, !srcloc !5
  store ptr @_ZZN32pxrInternal_v0_24__pxrReserved__3Hgi10SubmitCmdsEPNS_7HgiCmdsENS_17HgiSubmitWaitTypeEE15TraceKeyData_37, ptr %5, align 8
  %.sroa.7.12.insert.insert = or disjoint i64 %.sroa.11.0, %.sroa.7.0
  call void @_ZN32pxrInternal_v0_24__pxrReserved__14TraceCollector5ScopeERKNS_8TraceKeyEmm(ptr noundef nonnull align 8 dereferenceable(8) %5, i64 noundef %.sroa.7.12.insert.insert, i64 noundef %34) #18
  br label %_ZN32pxrInternal_v0_24__pxrReserved__14TraceScopeAutoD2Ev.exit

_ZN32pxrInternal_v0_24__pxrReserved__14TraceScopeAutoD2Ev.exit: ; preds = %31, %33
  call void @llvm.lifetime.end.p0(i64 8, ptr nonnull %5)
  resume { ptr, i32 } %32

.critedge:                                        ; preds = %_ZN32pxrInternal_v0_24__pxrReserved__14TraceScopeAutoC2ERKNS_18TraceStaticKeyDataE.exit, %30, %25
  call void @llvm.lifetime.start.p0(i64 8, ptr nonnull %4)
  br i1 %8, label %35, label %_ZN32pxrInternal_v0_24__pxrReserved__14TraceScopeAutoD2Ev.exit9

35:                                               ; preds = %.critedge
  fence syncscope("singlethread") seq_cst
  %36 = call noundef i64 asm sideeffect "rdtscp\0A\09shl $$32, %rdx\0A\09or %rdx, $0\0A\09lfence", "={ax},~{rcx},~{rdx},~{cc},~{dirflag},~{fpsr},~{flags}"() #18, !srcloc !5
  store ptr @_ZZN32pxrInternal_v0_24__pxrReserved__3Hgi10SubmitCmdsEPNS_7HgiCmdsENS_17HgiSubmitWaitTypeEE15TraceKeyData_37, ptr %4, align 8
  %.sroa.7.12.insert.insert15 = or disjoint i64 %.sroa.11.0, %.sroa.7.0
  call void @_ZN32pxrInternal_v0_24__pxrReserved__14TraceCollector5ScopeERKNS_8TraceKeyEmm(ptr noundef nonnull align 8 dereferenceable(8) %4, i64 noundef %.sroa.7.12.insert.insert15, i64 noundef %36) #18
  br label %_ZN32pxrInternal_v0_24__pxrReserved__14TraceScopeAutoD2Ev.exit9

_ZN32pxrInternal_v0_24__pxrReserved__14TraceScopeAutoD2Ev.exit9: ; preds = %.critedge, %35
  call void @llvm.lifetime.end.p0(i64 8, ptr nonnull %4)
  ret void
}